target datalayout = "e-m:e-p270:32:32-p271:32:32-p272:64:64-i64:64-i128:128-f80:128-n8:16:32:64-S128"
target triple = "x86_64-pc-linux-gnu"

%"class.pxrInternal_v0_24__pxrReserved__::pxr_double_conversion::Bignum" = type { i16, i16, [128 x i32] }

; Function Attrs: mustprogress nounwind uwtable
define internal noundef signext i8 @_ZN32pxrInternal_v0_24__pxrReserved__21pxr_double_conversionL14HexCharOfValueEi(i32 noundef %0) #0 {
  %2 = alloca i8, align 1
  %3 = alloca i32, align 4
  store i32 %0, ptr %3, align 4
  %4 = load i32, ptr %3, align 4
  %5 = icmp slt i32 %4, 10
  br i1 %5, label %6, label %10

6:                                                ; preds = %1
  %7 = load i32, ptr %3, align 4
  %8 = add nsw i32 %7, 48
  %9 = trunc i32 %8 to i8
  store i8 %9, ptr %2, align 1
  br label %15

10:                                               ; preds = %1
  %11 = load i32, ptr %3, align 4
  %12 = sub nsw i32 %11, 10
  %13 = add nsw i32 %12, 65
  %14 = trunc i32 %13 to i8
  store i8 %14, ptr %2, align 1
  br label %15

15:                                               ; preds = %10, %6
  %16 = load i8, ptr %2, align 1
  ret i8 %16
}

; Function Attrs: mustprogress nounwind uwtable
define internal noundef i32 @_ZN32pxrInternal_v0_24__pxrReserved__21pxr_double_conversionL14SizeInHexCharsIjEEiT_(i32 noundef %0) #0 {
  %2 = alloca i32, align 4
  %3 = alloca i32, align 4
  store i32 %0, ptr %2, align 4
  store i32 0, ptr %3, align 4
  br label %4

4:                                                ; preds = %7, %1
  %5 = load i32, ptr %2, align 4
  %6 = icmp ne i32 %5, 0
  br i1 %6, label %7, label %12

7:                                                ; preds = %4
  %8 = load i32, ptr %2, align 4
  %9 = lshr i32 %8, 4
  store i32 %9, ptr %2, align 4
  %10 = load i32, ptr %3, align 4
  %11 = add nsw i32 %10, 1
  store i32 %11, ptr %3, align 4
  br label %4, !llvm.loop !45

12:                                               ; preds = %4
  %13 = load i32, ptr %3, align 4
  ret i32 %13
}

; Function Attrs: mustprogress nounwind uwtable
define noundef nonnull align 4 dereferenceable(4) ptr @_ZNK32pxrInternal_v0_24__pxrReserved__21pxr_double_conversion6Bignum8RawBigitEi(ptr noundef nonnull align 4 dereferenceable(516) %0, i32 noundef %1) #0 align 2 {
  %3 = alloca ptr, align 8
  %4 = alloca i32, align 4
  store ptr %0, ptr %3, align 8
  store i32 %1, ptr %4, align 4
  %5 = load ptr, ptr %3, align 8
  %6 = getelementptr inbounds nuw %"class.pxrInternal_v0_24__pxrReserved__::pxr_double_conversion::Bignum", ptr %5, i32 0, i32 2
  %7 = load i32, ptr %4, align 4
  %8 = sext i32 %7 to i64
  %9 = getelementptr inbounds [128 x i32], ptr %6, i64 0, i64 %8
  ret ptr %9
}

; Function Attrs: mustprogress nounwind uwtable
define linkonce_odr noundef i32 @_ZNK32pxrInternal_v0_24__pxrReserved__21pxr_double_conversion6Bignum11BigitLengthEv(ptr noundef nonnull align 4 dereferenceable(516) %0) #0 comdat align 2 {
  %2 = alloca ptr, align 8
  store ptr %0, ptr %2, align 8
  %3 = load ptr, ptr %2, align 8
  %4 = getelementptr inbounds nuw %"class.pxrInternal_v0_24__pxrReserved__::pxr_double_conversion::Bignum", ptr %3, i32 0, i32 0
  %5 = load i16, ptr %4, align 4
  %6 = sext i16 %5 to i32
  %7 = getelementptr inbounds nuw %"class.pxrInternal_v0_24__pxrReserved__::pxr_double_conversion::Bignum", ptr %3, i32 0, i32 1
  %8 = load i16, ptr %7, align 2
  %9 = sext i16 %8 to i32
  %10 = add nsw i32 %6, %9
  ret i32 %10
}

; Function Attrs: mustprogress uwtable
define noundef zeroext i1 @_ZNK32pxrInternal_v0_24__pxrReserved__21pxr_double_conversion6Bignum11ToHexStringEPci(ptr noundef nonnull align 4 dereferenceable(516) %0, ptr noundef %1, i32 noundef %2) #1 align 2 {
  %4 = alloca i1, align 1
  %5 = alloca ptr, align 8
  %6 = alloca ptr, align 8
  %7 = alloca i32, align 4
  %8 = alloca i32, align 4
  %9 = alloca i32, align 4
  %10 = alloca i32, align 4
  %11 = alloca i32, align 4
  %12 = alloca i32, align 4
  %13 = alloca i32, align 4
  %14 = alloca i32, align 4
  %15 = alloca i32, align 4
  store ptr %0, ptr %5, align 8
  store ptr %1, ptr %6, align 8
  store i32 %2, ptr %7, align 4
  %16 = load ptr, ptr %5, align 8
  %17 = getelementptr inbounds nuw %"class.pxrInternal_v0_24__pxrReserved__::pxr_double_conversion::Bignum", ptr %16, i32 0, i32 0
  %18 = load i16, ptr %17, align 4
  %19 = sext i16 %18 to i32
  %20 = icmp eq i32 %19, 0
  br i1 %20, label %21, label %30

21:                                               ; preds = %3
  %22 = load i32, ptr %7, align 4
  %23 = icmp slt i32 %22, 2
  br i1 %23, label %24, label %25

24:                                               ; preds = %21
  store i1 false, ptr %4, align 1
  br label %133

25:                                               ; preds = %21
  %26 = load ptr, ptr %6, align 8
  %27 = getelementptr inbounds i8, ptr %26, i64 0
  store i8 48, ptr %27, align 1
  %28 = load ptr, ptr %6, align 8
  %29 = getelementptr inbounds i8, ptr %28, i64 1
  store i8 0, ptr %29, align 1
  store i1 true, ptr %4, align 1
  br label %133

30:                                               ; preds = %3
  %31 = call noundef i32 @_ZNK32pxrInternal_v0_24__pxrReserved__21pxr_double_conversion6Bignum11BigitLengthEv(ptr noundef nonnull align 4 dereferenceable(516) %16)
  %32 = sub nsw i32 %31, 1
  %33 = mul nsw i32 %32, 7
  %34 = getelementptr inbounds nuw %"class.pxrInternal_v0_24__pxrReserved__::pxr_double_conversion::Bignum", ptr %16, i32 0, i32 0
  %35 = load i16, ptr %34, align 4
  %36 = sext i16 %35 to i32
  %37 = sub nsw i32 %36, 1
  %38 = call noundef nonnull align 4 dereferenceable(4) ptr @_ZNK32pxrInternal_v0_24__pxrReserved__21pxr_double_conversion6Bignum8RawBigitEi(ptr noundef nonnull align 4 dereferenceable(516) %16, i32 noundef %37)
  %39 = load i32, ptr %38, align 4
  %40 = call noundef i32 @_ZN32pxrInternal_v0_24__pxrReserved__21pxr_double_conversionL14SizeInHexCharsIjEEiT_(i32 noundef %39)
  %41 = add nsw i32 %33, %40
  %42 = add nsw i32 %41, 1
  store i32 %42, ptr %8, align 4
  %43 = load i32, ptr %8, align 4
  %44 = load i32, ptr %7, align 4
  %45 = icmp sgt i32 %43, %44
  br i1 %45, label %46, label %47

46:                                               ; preds = %30
  store i1 false, ptr %4, align 1
  br label %133

47:                                               ; preds = %30
  %48 = load i32, ptr %8, align 4
  %49 = sub nsw i32 %48, 1
  store i32 %49, ptr %9, align 4
  %50 = load ptr, ptr %6, align 8
  %51 = load i32, ptr %9, align 4
  %52 = add nsw i32 %51, -1
  store i32 %52, ptr %9, align 4
  %53 = sext i32 %51 to i64
  %54 = getelementptr inbounds i8, ptr %50, i64 %53
  store i8 0, ptr %54, align 1
  store i32 0, ptr %10, align 4
  br label %55

55:                                               ; preds = %75, %47
  %56 = load i32, ptr %10, align 4
  %57 = getelementptr inbounds nuw %"class.pxrInternal_v0_24__pxrReserved__::pxr_double_conversion::Bignum", ptr %16, i32 0, i32 1
  %58 = load i16, ptr %57, align 2
  %59 = sext i16 %58 to i32
  %60 = icmp slt i32 %56, %59
  br i1 %60, label %61, label %78

61:                                               ; preds = %55
  store i32 0, ptr %11, align 4
  br label %62

62:                                               ; preds = %71, %61
  %63 = load i32, ptr %11, align 4
  %64 = icmp slt i32 %63, 7
  br i1 %64, label %65, label %74

65:                                               ; preds = %62
  %66 = load ptr, ptr %6, align 8
  %67 = load i32, ptr %9, align 4
  %68 = add nsw i32 %67, -1
  store i32 %68, ptr %9, align 4
  %69 = sext i32 %67 to i64
  %70 = getelementptr inbounds i8, ptr %66, i64 %69
  store i8 48, ptr %70, align 1
  br label %71

71:                                               ; preds = %65
  %72 = load i32, ptr %11, align 4
  %73 = add nsw i32 %72, 1
  store i32 %73, ptr %11, align 4
  br label %62, !llvm.loop !40

74:                                               ; preds = %62
  br label %75

75:                                               ; preds = %74
  %76 = load i32, ptr %10, align 4
  %77 = add nsw i32 %76, 1
  store i32 %77, ptr %10, align 4
  br label %55, !llvm.loop !41

78:                                               ; preds = %55
  store i32 0, ptr %12, align 4
  br label %79

79:                                               ; preds = %108, %78
  %80 = load i32, ptr %12, align 4
  %81 = getelementptr inbounds nuw %"class.pxrInternal_v0_24__pxrReserved__::pxr_double_conversion::Bignum", ptr %16, i32 0, i32 0
  %82 = load i16, ptr %81, align 4
  %83 = sext i16 %82 to i32
  %84 = sub nsw i32 %83, 1
  %85 = icmp slt i32 %80, %84
  br i1 %85, label %86, label %111

86:                                               ; preds = %79
  %87 = load i32, ptr %12, align 4
  %88 = call noundef nonnull align 4 dereferenceable(4) ptr @_ZNK32pxrInternal_v0_24__pxrReserved__21pxr_double_conversion6Bignum8RawBigitEi(ptr noundef nonnull align 4 dereferenceable(516) %16, i32 noundef %87)
  %89 = load i32, ptr %88, align 4
  store i32 %89, ptr %13, align 4
  store i32 0, ptr %14, align 4
  br label %90

90:                                               ; preds = %104, %86
  %91 = load i32, ptr %14, align 4
  %92 = icmp slt i32 %91, 7
  br i1 %92, label %93, label %107

93:                                               ; preds = %90
  %94 = load i32, ptr %13, align 4
  %95 = and i32 %94, 15
  %96 = call noundef signext i8 @_ZN32pxrInternal_v0_24__pxrReserved__21pxr_double_conversionL14HexCharOfValueEi(i32 noundef %95)
  %97 = load ptr, ptr %6, align 8
  %98 = load i32, ptr %9, align 4
  %99 = add nsw i32 %98, -1
  store i32 %99, ptr %9, align 4
  %100 = sext i32 %98 to i64
  %101 = getelementptr inbounds i8, ptr %97, i64 %100
  store i8 %96, ptr %101, align 1
  %102 = load i32, ptr %13, align 4
  %103 = lshr i32 %102, 4
  store i32 %103, ptr %13, align 4
  br label %104

104:                                              ; preds = %93
  %105 = load i32, ptr %14, align 4
  %106 = add nsw i32 %105, 1
  store i32 %106, ptr %14, align 4
  br label %90, !llvm.loop !42

107:                                              ; preds = %90
  br label %108

108:                                              ; preds = %107
  %109 = load i32, ptr %12, align 4
  %110 = add nsw i32 %109, 1
  store i32 %110, ptr %12, align 4
  br label %79, !llvm.loop !43

111:                                              ; preds = %79
  %112 = getelementptr inbounds nuw %"class.pxrInternal_v0_24__pxrReserved__::pxr_double_conversion::Bignum", ptr %16, i32 0, i32 0
  %113 = load i16, ptr %112, align 4
  %114 = sext i16 %113 to i32
  %115 = sub nsw i32 %114, 1
  %116 = call noundef nonnull align 4 dereferenceable(4) ptr @_ZNK32pxrInternal_v0_24__pxrReserved__21pxr_double_conversion6Bignum8RawBigitEi(ptr noundef nonnull align 4 dereferenceable(516) %16, i32 noundef %115)
  %117 = load i32, ptr %116, align 4
  store i32 %117, ptr %15, align 4
  br label %118

118:                                              ; preds = %121, %111
  %119 = load i32, ptr %15, align 4
  %120 = icmp ne i32 %119, 0
  br i1 %120, label %121, label %132

121:                                              ; preds = %118
  %122 = load i32, ptr %15, align 4
  %123 = and i32 %122, 15
  %124 = call noundef signext i8 @_ZN32pxrInternal_v0_24__pxrReserved__21pxr_double_conversionL14HexCharOfValueEi(i32 noundef %123)
  %125 = load ptr, ptr %6, align 8
  %126 = load i32, ptr %9, align 4
  %127 = add nsw i32 %126, -1
  store i32 %127, ptr %9, align 4
  %128 = sext i32 %126 to i64
  %129 = getelementptr inbounds i8, ptr %125, i64 %128
  store i8 %124, ptr %129, align 1
  %130 = load i32, ptr %15, align 4
  %131 = lshr i32 %130, 4
  store i32 %131, ptr %15, align 4
  br label %118, !llvm.loop !44

132:                                              ; preds = %118
  store i1 true, ptr %4, align 1
  br label %133

133:                                              ; preds = %132, %46, %25, %24
  %134 = load i1, ptr %4, align 1
  ret i1 %134
}