; Function Attrs: mustprogress nofree norecurse nosync nounwind memory(argmem: readwrite) uwtable
define noundef zeroext i1 @_ZNK32pxrInternal_v0_24__pxrReserved__21pxr_double_conversion6Bignum11ToHexStringEPci(ptr nocapture noundef nonnull readonly align 4 dereferenceable(516) %0, ptr nocapture noundef writeonly %1, i32 noundef %2) local_unnamed_addr #3 align 2 {
  %4 = load i16, ptr %0, align 4
  %5 = icmp eq i16 %4, 0
  br i1 %5, label %6, label %10

6:                                                ; preds = %3
  %7 = icmp slt i32 %2, 2
  br i1 %7, label %.loopexit, label %8

8:                                                ; preds = %6
  store i8 48, ptr %1, align 1
  %9 = getelementptr inbounds i8, ptr %1, i64 1
  store i8 0, ptr %9, align 1
  br label %.loopexit

10:                                               ; preds = %3
  %11 = sext i16 %4 to i32
  %12 = getelementptr inbounds nuw i8, ptr %0, i64 2
  %13 = load i16, ptr %12, align 2
  %14 = sext i16 %13 to i32
  %15 = add nsw i32 %14, %11
  %16 = mul nsw i32 %15, 7
  %17 = add nsw i32 %16, -7
  %18 = add nsw i32 %11, -1
  %19 = getelementptr inbounds nuw i8, ptr %0, i64 4
  %20 = sext i32 %18 to i64
  %21 = getelementptr inbounds [128 x i32], ptr %19, i64 0, i64 %20
  %22 = load i32, ptr %21, align 4
  %.not5.i = icmp eq i32 %22, 0
  br i1 %.not5.i, label %_ZN32pxrInternal_v0_24__pxrReserved__21pxr_double_conversionL14SizeInHexCharsIjEEiT_.exit, label %.lr.ph.i

.lr.ph.i:                                         ; preds = %10, %.lr.ph.i
  %.07.i = phi i32 [ %24, %.lr.ph.i ], [ 0, %10 ]
  %.046.i = phi i32 [ %23, %.lr.ph.i ], [ %22, %10 ]
  %23 = lshr i32 %.046.i, 4
  %24 = add nuw nsw i32 %.07.i, 1
  %.not.i = icmp ult i32 %.046.i, 16
  br i1 %.not.i, label %_ZN32pxrInternal_v0_24__pxrReserved__21pxr_double_conversionL14SizeInHexCharsIjEEiT_.exit, label %.lr.ph.i, !llvm.loop !39

_ZN32pxrInternal_v0_24__pxrReserved__21pxr_double_conversionL14SizeInHexCharsIjEEiT_.exit: ; preds = %.lr.ph.i, %10
  %.0.lcssa.i = phi i32 [ 0, %10 ], [ %24, %.lr.ph.i ]
  %25 = add nsw i32 %17, %.0.lcssa.i
  %.not = icmp slt i32 %25, %2
  br i1 %.not, label %26, label %.loopexit

26:                                               ; preds = %_ZN32pxrInternal_v0_24__pxrReserved__21pxr_double_conversionL14SizeInHexCharsIjEEiT_.exit
  %27 = add nsw i32 %25, -1
  %28 = sext i32 %25 to i64
  %29 = getelementptr inbounds i8, ptr %1, i64 %28
  store i8 0, ptr %29, align 1
  %30 = load i16, ptr %12, align 2
  %31 = icmp sgt i16 %30, 0
  br i1 %31, label %.preheader40.preheader, label %.preheader

.preheader40.preheader:                           ; preds = %26
  %scevgep = getelementptr i8, ptr %1, i64 -6
  %32 = sext i32 %27 to i64
  br label %.preheader40

.preheader40:                                     ; preds = %.preheader40.preheader, %.preheader40
  %indvars.iv = phi i64 [ %32, %.preheader40.preheader ], [ %indvars.iv.next, %.preheader40 ]
  %.03345 = phi i32 [ 0, %.preheader40.preheader ], [ %33, %.preheader40 ]
  %scevgep62 = getelementptr i8, ptr %scevgep, i64 %indvars.iv
  tail call void @llvm.memset.p0.i64(ptr noundef nonnull align 1 dereferenceable(7) %scevgep62, i8 48, i64 7, i1 false)
  %indvars.iv.next = add nsw i64 %indvars.iv, -7
  %33 = add nuw nsw i32 %.03345, 1
  %34 = load i16, ptr %12, align 2
  %35 = sext i16 %34 to i32
  %36 = icmp slt i32 %33, %35
  br i1 %36, label %.preheader40, label %.preheader.loopexit, !llvm.loop !40

.preheader.loopexit:                              ; preds = %.preheader40
  %indvars = trunc i64 %indvars.iv.next to i32
  br label %.preheader

.preheader:                                       ; preds = %.preheader.loopexit, %26
  %.034.lcssa = phi i32 [ %27, %26 ], [ %indvars, %.preheader.loopexit ]
  %37 = load i16, ptr %0, align 4
  %38 = icmp sgt i16 %37, 1
  br i1 %38, label %.lr.ph, label %.preheader.._crit_edge_crit_edge

.preheader.._crit_edge_crit_edge:                 ; preds = %.preheader
  %39 = sext i16 %37 to i64
  %.pre = add nsw i64 %39, -1
  br label %._crit_edge

.lr.ph:                                           ; preds = %.preheader, %50
  %indvars.iv69 = phi i64 [ %indvars.iv.next70, %50 ], [ 0, %.preheader ]
  %.249 = phi i32 [ %51, %50 ], [ %.034.lcssa, %.preheader ]
  %40 = getelementptr inbounds [128 x i32], ptr %19, i64 0, i64 %indvars.iv69
  %41 = load i32, ptr %40, align 4
  %42 = sext i32 %.249 to i64
  br label %43

43:                                               ; preds = %.lr.ph, %43
  %indvars.iv65 = phi i64 [ %42, %.lr.ph ], [ %indvars.iv.next66, %43 ]
  %.02948 = phi i32 [ 0, %.lr.ph ], [ %49, %43 ]
  %.03047 = phi i32 [ %41, %.lr.ph ], [ %48, %43 ]
  %44 = and i32 %.03047, 15
  %45 = icmp ult i32 %44, 10
  %46 = trunc nuw nsw i32 %44 to i8
  %.0.v.i = select i1 %45, i8 48, i8 55
  %.0.i = add nuw nsw i8 %.0.v.i, %46
  %indvars.iv.next66 = add nsw i64 %indvars.iv65, -1
  %47 = getelementptr inbounds i8, ptr %1, i64 %indvars.iv65
  store i8 %.0.i, ptr %47, align 1
  %48 = lshr i32 %.03047, 4
  %49 = add nuw nsw i32 %.02948, 1
  %exitcond.not = icmp eq i32 %49, 7
  br i1 %exitcond.not, label %50, label %43, !llvm.loop !41

50:                                               ; preds = %43
  %51 = trunc nsw i64 %indvars.iv.next66 to i32
  %indvars.iv.next70 = add nuw nsw i64 %indvars.iv69, 1
  %52 = load i16, ptr %0, align 4
  %53 = sext i16 %52 to i64
  %54 = add nsw i64 %53, -1
  %55 = icmp slt i64 %indvars.iv.next70, %54
  br i1 %55, label %.lr.ph, label %._crit_edge, !llvm.loop !42

._crit_edge:                                      ; preds = %50, %.preheader.._crit_edge_crit_edge
  %.pre-phi = phi i64 [ %.pre, %.preheader.._crit_edge_crit_edge ], [ %54, %50 ]
  %.2.lcssa = phi i32 [ %.034.lcssa, %.preheader.._crit_edge_crit_edge ], [ %51, %50 ]
  %56 = getelementptr inbounds [128 x i32], ptr %19, i64 0, i64 %.pre-phi
  %57 = load i32, ptr %56, align 4
  %.not3753 = icmp eq i32 %57, 0
  br i1 %.not3753, label %.loopexit, label %.lr.ph57.preheader

.lr.ph57.preheader:                               ; preds = %._crit_edge
  %58 = sext i32 %.2.lcssa to i64
  br label %.lr.ph57

.lr.ph57:                                         ; preds = %.lr.ph57.preheader, %.lr.ph57
  %indvars.iv73 = phi i64 [ %58, %.lr.ph57.preheader ], [ %indvars.iv.next74, %.lr.ph57 ]
  %.055 = phi i32 [ %57, %.lr.ph57.preheader ], [ %63, %.lr.ph57 ]
  %59 = and i32 %.055, 15
  %60 = icmp ult i32 %59, 10
  %61 = trunc nuw nsw i32 %59 to i8
  %.0.v.i38 = select i1 %60, i8 48, i8 55
  %.0.i39 = add nuw nsw i8 %.0.v.i38, %61
  %indvars.iv.next74 = add nsw i64 %indvars.iv73, -1
  %62 = getelementptr inbounds i8, ptr %1, i64 %indvars.iv73
  store i8 %.0.i39, ptr %62, align 1
  %63 = lshr i32 %.055, 4
  %.not37 = icmp ult i32 %.055, 16
  br i1 %.not37, label %.loopexit, label %.lr.ph57, !llvm.loop !43

.loopexit:                                        ; preds = %.lr.ph57, %._crit_edge, %_ZN32pxrInternal_v0_24__pxrReserved__21pxr_double_conversionL14SizeInHexCharsIjEEiT_.exit, %6, %8
  %.035 = phi i1 [ true, %8 ], [ false, %6 ], [ false, %_ZN32pxrInternal_v0_24__pxrReserved__21pxr_double_conversionL14SizeInHexCharsIjEEiT_.exit ], [ true, %._crit_edge ], [ true, %.lr.ph57 ]
  ret i1 %.035
}